                                org 0x6000
                                start1:
6000: CD 14 61                      call beep2
6003: 01 02 3D                  	ld bc,0x3d02 
6006: 11 3E 63                  	ld de,S2
6009: CD 36 60                  	call bigPrint
600C: 01 02 3E                  	ld bc,0x3e02 
600F: 11 49 63                  	ld de,S3
6012: CD 36 60                  	call bigPrint
6015: 01 02 3F                  	ld bc,0x3f02 
6018: 11 54 63                  	ld de,S4
601B: CD 36 60                  	call bigPrint
601E: C9                        	ret
                                
                                start2: ;call from BASIC (use USR(stringlocation))
601F: CD 7F 0A                  	call 0x0a7f
6022: 01 82 3D                  	ld bc,0x3d82 ;SCREEN CENTER
6025: 54                        	ld d,h
6026: 5D                        	ld e,l
6027: D5                        	push de
6028: C5                        	push bc
6029: CD 14 61                  	call beep2
602C: C1                        	pop bc
602D: D1                        	pop de
602E: CD 36 60                  	call bigPrint
6031: C9                        	ret
                                
                                start3:
6032: CD F4 60                  	call beep
6035: C9                        	ret
                                
                                bigPrint: ;prints a string at de to screen at bc. String must be null terminated.
6036: 1A                        	ld a,(de)
6037: FE 00                     	cp 0
6039: 28 0E                     	jr z,bigPrintLoopEnd
603B: C5                        	push bc
603C: E1                        	pop hl
603D: CD 4A 60                  	call letter
6040: 03                        	inc bc
6041: 03                        	inc bc
6042: 03                        	inc bc
6043: 03                        	inc bc
6044: 03                        	inc bc
6045: 03                        	inc bc
6046: 13                        	inc de
6047: 18 ED                     	jr bigPrint
                                	bigPrintLoopEnd:	
6049: C9                        		ret
                                	
                                letter: ;at position hl on screen, print character a in big font, using graphics characters
604A: C5                        	push bc
604B: D5                        	push de
604C: 22 3A 63                  	ld (destination),hl
604F: E6 3F                     	and 0b00111111 ;a is now 0-63
6051: 21 34 61                  	ld hl,font
6054: 44                        	ld b,h
6055: 4D                        	ld c,l
6056: 26 00                     	ld h,0
6058: 6F                        	ld l,a
6059: 29                        	add hl,hl
605A: 29                        	add hl,hl
605B: 29                        	add hl,hl ;bc = 8*a
605C: 09                        	add hl,bc ;hl = font+8*a 
605D: 2B                        	dec hl
605E: 22 3C 63                  	ld (fontpointer),hl
6061: 06 03                     	ld b,3
                                	nineLines:
6063: 2A 3C 63                  		ld hl,(fontpointer) ;got it backwards, so a hacky fix
6066: 23                        		inc hl
6067: 23                        		inc hl
6068: 23                        		inc hl
6069: 22 3C 63                  		ld (fontpointer),hl
606C: C5                        		push bc
606D: 06 03                     		ld b,3
                                		gcloop: ;loop 3 times down loop for one graphics char
606F: C5                        			push bc ;loop counter
6070: 2A 3C 63                  			ld hl,(fontpointer)
6073: CD A8 60                  			call lineOrer
6076: C1                        			pop bc ;loop counter
6077: 2A 3C 63                  			ld hl,(fontpointer)
607A: 2B                        			dec hl
607B: 22 3C 63                  			ld (fontpointer),hl
607E: 10 EF                     			djnz gcloop
6080: C1                        		pop bc
6081: C5                        		push bc
6082: 3E 01                     		ld a,1
6084: B8                        		cp b
6085: 20 0C                     		jr nz, line3skip
6087: 21 34 63                  			ld hl,scratchpad
608A: 06 06                     			ld b,6
                                			gcloop3: ;clear out the 9th line, we aren't using it
608C: 3E 0F                     				ld a,0x0f
608E: A6                        				and (hl)
608F: 77                        				ld (hl),a
6090: 23                        				inc hl
6091: 10 F9                     				djnz gcloop3
                                		line3skip:
6093: 2A 3C 63                  		ld hl,(fontpointer)
6096: 23                        		inc hl
6097: 23                        		inc hl
6098: 23                        		inc hl
6099: 22 3C 63                  		ld (fontpointer),hl
609C: CD C3 60                  		call scratch2Screen
609F: C1                        		pop bc
60A0: 10 C1                     		djnz nineLines
60A2: CD C3 60                  	call scratch2Screen
60A5: D1                        	pop de
60A6: C1                        	pop bc
60A7: C9                        	ret
                                
                                lineOrer: ;shifts graphics blocks down char, then copies line info at HL to top of char cell, for one line (6 chars)
60A8: 7E                        	ld a,(hl)
60A9: 07                        	rlca
60AA: 57                        	ld d,a
60AB: 21 34 63                  	ld hl,scratchpad
60AE: 06 06                     	ld b,6
                                	lineloop:
60B0: 7A                        	ld a,d ;font info
60B1: E6 01                     	and 1
60B3: 4F                        	ld c,a 
60B4: 87                        	add a,a
60B5: 81                        	add a,c
60B6: 4F                        	ld c,a
60B7: 7E                        	ld a,(hl)
60B8: 87                        	add a,a
60B9: 87                        	add a,a
60BA: 81                        	add a,c
60BB: 77                        	ld (hl),a
60BC: 23                        	inc hl
60BD: 7A                        	ld a,d
60BE: 07                        	rlca
60BF: 57                        	ld d,a
60C0: 10 EE                     	djnz lineloop
60C2: C9                        	ret
                                
                                scratch2Screen: ;copy scratchpad to screen; increment screen pointer down a char
60C3: 21 34 63                  	ld hl,scratchpad
60C6: 06 06                     	ld b,6
                                	lineloop4:
60C8: 3E 80                     	ld a,0x80
60CA: B6                        	or (hl)
60CB: 77                        	ld (hl),a
60CC: 23                        	inc hl
60CD: 10 F9                     	djnz lineloop4
60CF: 2A 3A 63                  	ld hl,(destination)
60D2: 54                        	ld d,h
60D3: 5D                        	ld e,l
60D4: 21 34 63                  	ld hl,scratchpad
60D7: 01 06 00                  	ld bc,0x0006
60DA: ED B0                     	ldir
60DC: 2A 3A 63                  	ld hl,(destination)
60DF: 3E 40                     	ld a,64 ;add 64 to go down a line
60E1: 85                        	add a,l ;A = A+L ;add a to hl
60E2: 6F                        	ld l,a  ;L = A+L
60E3: 8C                        	adc a,h ;A = A+L+H+carry
60E4: 95                        	sub l   ;A = H+carry
60E5: 67                        	ld  h,a ;H = H+carry
60E6: 22 3A 63                  	ld (destination),hl
                                	;scratchpadZero:
60E9: 21 34 63                  	ld hl,scratchpad
60EC: 06 06                     	ld b,6
                                	scratchpadZeroLoop:
60EE: AF                        	xor a
60EF: 77                        	ld (hl),a
60F0: 23                        	inc hl
60F1: 10 FB                     	djnz scratchpadZeroLoop
60F3: C9                        	ret
                                
                                beep: ;1KHz short beep
60F4: 11 C8 00                  	ld de,200
                                	beeplooploop: ;26
60F7: 3E 02                     		ld a,2;
60F9: D3 FF                     		out (0xff),a
60FB: CD 0F 61                  		call beepwavwait
60FE: 3E 01                     		ld a,1
6100: D3 FF                     		out (0xff),a
6102: CD 0F 61                  		call beepwavwait
6105: 1B                        		dec de
6106: 7A                        		ld a,d
6107: B3                        		or e
6108: 20 ED                     		jr nz,beeplooploop
610A: 3E 00                     	ld a,0
610C: D3 FF                     	out (0xff),a
610E: C9                        	ret
                                	beepwavwait: ;waits for 1/2 1khz cycle
610F: 06 88                     		ld b,136
                                		beepwavwaitloop:
6111: 10 FE                     			djnz beepwavwaitloop ;13
6113: C9                        		ret
                                
                                beep2: ;2KHz short beep
6114: 11 90 01                  	ld de,400
                                	beeplooploop2: ;26
6117: 3E 02                     		ld a,2
6119: D3 FF                     		out (0xff),a
611B: CD 2F 61                  		call beepwavwait2
611E: 3E 01                     		ld a,1
6120: D3 FF                     		out (0xff),a
6122: CD 2F 61                  		call beepwavwait2
6125: 1B                        		dec de
6126: 7A                        		ld a,d
6127: B3                        		or e
6128: 20 ED                     		jr nz,beeplooploop2
612A: 3E 00                     	ld a,0
612C: D3 FF                     	out (0xff),a
612E: C9                        	ret
                                	beepwavwait2: ;waits for 1/2 1khz cycle
612F: 06 44                     		ld b,68
                                		beepwavwaitloop2:
6131: 10 FE                     			djnz beepwavwaitloop2 ;13
6133: C9                        		ret
                                	
                                
                                font:
6134: 38 44 04 34 54 54 38 00   db 0x38, 0x44, 0x04, 0x34, 0x54, 0x54, 0x38, 0x00, 0x10, 0x28, 0x44, 0x44, 0x7C, 0x44, 0x44, 0x00, 0x78, 0x24, 0x24, 0x38, 0x24, 0x24, 0x78, 0x00, 0x38, 0x44, 0x40, 0x40, 0x40, 0x44, 0x38, 0x00, 0x78, 0x24, 0x24, 0x24, 0x24, 0x24, 0x78, 0x00, 0x7C, 0x40, 0x40, 0x78, 0x40, 0x40, 0x7C, 0x00, 0x7C, 0x40, 0x40, 0x78, 0x40, 0x40, 0x40, 0x00, 0x3C, 0x40, 0x40, 0x4C, 0x44, 0x44, 0x3C, 0x00, 0x44, 0x44, 0x44, 0x7C, 0x44, 0x44, 0x44, 0x00, 0x7C, 0x10, 0x10, 0x10, 0x10, 0x10, 0x7C, 0x00, 0x04, 0x04, 0x04, 0x04, 0x04, 0x44, 0x38, 0x00, 0x44, 0x48, 0x50, 0x60, 0x50, 0x48, 0x44, 0x00, 0x40, 0x40, 0x40, 0x40, 0x40, 0x40, 0x7C, 0x00, 0x44, 0x6C, 0x54, 0x54, 0x44, 0x44, 0x44, 0x00, 0x44, 0x64, 0x54, 0x4C, 0x44, 0x44, 0x44, 0x00, 0x38, 0x44, 0x44, 0x44, 0x44, 0x44, 0x38, 0x00, 0x78, 0x44, 0x44, 0x78, 0x40, 0x40, 0x40, 0x00, 0x38, 0x44, 0x44, 0x44, 0x54, 0x48, 0x34, 0x00, 0x78, 0x44, 0x44, 0x78, 0x50, 0x48, 0x44, 0x00, 0x38, 0x44, 0x40, 0x38, 0x04, 0x44, 0x38, 0x00, 0x7C, 0x10, 0x10, 0x10, 0x10, 0x10, 0x10, 0x00, 0x44, 0x44, 0x44, 0x44, 0x44, 0x44, 0x38, 0x00, 0x44, 0x44, 0x44, 0x28, 0x28, 0x10, 0x10, 0x00, 0x44, 0x44, 0x44, 0x54, 0x54, 0x6C, 0x44, 0x00, 0x44, 0x44, 0x28, 0x10, 0x28, 0x44, 0x44, 0x00, 0x44, 0x44, 0x28, 0x10, 0x10, 0x10, 0x10, 0x00, 0x7C, 0x04, 0x08, 0x10, 0x20, 0x40, 0x7C, 0x00, 0x10, 0x38, 0x54, 0x10, 0x10, 0x10, 0x10, 0x00, 0x10, 0x10, 0x10, 0x10, 0x54, 0x38, 0x10, 0x00, 0x00, 0x10, 0x20, 0x7C, 0x20, 0x10, 0x00, 0x00, 0x00, 0x10, 0x08, 0x7C, 0x08, 0x10, 0x00, 0x00, 0x00, 0x00, 0x00, 0x00, 0x00, 0x00, 0x7C, 0x00, 0x00, 0x00, 0x00, 0x00, 0x00, 0x00, 0x00, 0x00, 0x10, 0x10, 0x10, 0x10, 0x10, 0x00, 0x10, 0x00, 0x28, 0x28, 0x00, 0x00, 0x00, 0x00, 0x00, 0x00, 0x28, 0x28, 0x7C, 0x28, 0x7C, 0x28, 0x28, 0x00, 0x10, 0x3C, 0x50, 0x38, 0x14, 0x78, 0x10, 0x00, 0x60, 0x64, 0x08, 0x10, 0x20, 0x4C, 0x0C, 0x00, 0x20, 0x50, 0x50, 0x20, 0x54, 0x48, 0x34, 0x00, 0x0C, 0x0C, 0x08, 0x10, 0x00, 0x00, 0x00, 0x00, 0x08, 0x10, 0x20, 0x20, 0x20, 0x10, 0x08, 0x00, 0x20, 0x10, 0x08, 0x08, 0x08, 0x10, 0x20, 0x00, 0x10, 0x54, 0x38, 0x7C, 0x38, 0x54, 0x10, 0x00, 0x00, 0x10, 0x10, 0x7C, 0x10, 0x10, 0x00, 0x00, 0x00, 0x00, 0x00, 0x00, 0x00, 0x18, 0x18, 0x10, 0x00, 0x00, 0x00, 0x7C, 0x00, 0x00, 0x00, 0x00, 0x00, 0x00, 0x00, 0x00, 0x00, 0x18, 0x18, 0x00, 0x00, 0x04, 0x08, 0x10, 0x20, 0x40, 0x00, 0x00, 0x38, 0x44, 0x4C, 0x54, 0x64, 0x44, 0x38, 0x00, 0x10, 0x30, 0x10, 0x10, 0x10, 0x10, 0x38, 0x00, 0x38, 0x44, 0x04, 0x38, 0x40, 0x40, 0x7C, 0x00, 0x38, 0x04, 0x04, 0x18, 0x04, 0x04, 0x38, 0x00, 0x08, 0x18, 0x28, 0x48, 0x7C, 0x08, 0x08, 0x00, 0x7C, 0x40, 0x78, 0x04, 0x04, 0x44, 0x38, 0x00, 0x18, 0x20, 0x40, 0x78, 0x44, 0x44, 0x38, 0x00, 0x7C, 0x04, 0x08, 0x10, 0x20, 0x40, 0x40, 0x00, 0x38, 0x44, 0x44, 0x38, 0x44, 0x44, 0x38, 0x00, 0x38, 0x44, 0x44, 0x3C, 0x04, 0x08, 0x30, 0x00, 0x00, 0x30, 0x30, 0x00, 0x30, 0x30, 0x00, 0x00, 0x00, 0x30, 0x30, 0x00, 0x30, 0x30, 0x20, 0x40, 0x08, 0x10, 0x20, 0x40, 0x20, 0x10, 0x08, 0x00, 0x00, 0x00, 0x7C, 0x00, 0x7C, 0x00, 0x00, 0x00, 0x40, 0x20, 0x10, 0x08, 0x10, 0x20, 0x40, 0x00, 0x38, 0x44, 0x04, 0x08, 0x10, 0x00, 0x10, 0x00
613C: 10 28 44 44 7C 44 44 00 
6144: 78 24 24 38 24 24 78 00 
614C: 38 44 40 40 40 44 38 00 
6154: 78 24 24 24 24 24 78 00 
615C: 7C 40 40 78 40 40 7C 00 
6164: 7C 40 40 78 40 40 40 00 
616C: 3C 40 40 4C 44 44 3C 00 
6174: 44 44 44 7C 44 44 44 00 
617C: 7C 10 10 10 10 10 7C 00 
6184: 04 04 04 04 04 44 38 00 
618C: 44 48 50 60 50 48 44 00 
6194: 40 40 40 40 40 40 7C 00 
619C: 44 6C 54 54 44 44 44 00 
61A4: 44 64 54 4C 44 44 44 00 
61AC: 38 44 44 44 44 44 38 00 
61B4: 78 44 44 78 40 40 40 00 
61BC: 38 44 44 44 54 48 34 00 
61C4: 78 44 44 78 50 48 44 00 
61CC: 38 44 40 38 04 44 38 00 
61D4: 7C 10 10 10 10 10 10 00 
61DC: 44 44 44 44 44 44 38 00 
61E4: 44 44 44 28 28 10 10 00 
61EC: 44 44 44 54 54 6C 44 00 
61F4: 44 44 28 10 28 44 44 00 
61FC: 44 44 28 10 10 10 10 00 
6204: 7C 04 08 10 20 40 7C 00 
620C: 10 38 54 10 10 10 10 00 
6214: 10 10 10 10 54 38 10 00 
621C: 00 10 20 7C 20 10 00 00 
6224: 00 10 08 7C 08 10 00 00 
622C: 00 00 00 00 00 00 7C 00 
6234: 00 00 00 00 00 00 00 00 
623C: 10 10 10 10 10 00 10 00 
6244: 28 28 00 00 00 00 00 00 
624C: 28 28 7C 28 7C 28 28 00 
6254: 10 3C 50 38 14 78 10 00 
625C: 60 64 08 10 20 4C 0C 00 
6264: 20 50 50 20 54 48 34 00 
626C: 0C 0C 08 10 00 00 00 00 
6274: 08 10 20 20 20 10 08 00 
627C: 20 10 08 08 08 10 20 00 
6284: 10 54 38 7C 38 54 10 00 
628C: 00 10 10 7C 10 10 00 00 
6294: 00 00 00 00 00 18 18 10 
629C: 00 00 00 7C 00 00 00 00 
62A4: 00 00 00 00 00 18 18 00 
62AC: 00 04 08 10 20 40 00 00 
62B4: 38 44 4C 54 64 44 38 00 
62BC: 10 30 10 10 10 10 38 00 
62C4: 38 44 04 38 40 40 7C 00 
62CC: 38 04 04 18 04 04 38 00 
62D4: 08 18 28 48 7C 08 08 00 
62DC: 7C 40 78 04 04 44 38 00 
62E4: 18 20 40 78 44 44 38 00 
62EC: 7C 04 08 10 20 40 40 00 
62F4: 38 44 44 38 44 44 38 00 
62FC: 38 44 44 3C 04 08 30 00 
6304: 00 30 30 00 30 30 00 00 
630C: 00 30 30 00 30 30 20 40 
6314: 08 10 20 40 20 10 08 00 
631C: 00 00 7C 00 7C 00 00 00 
6324: 40 20 10 08 10 20 40 00 
632C: 38 44 04 08 10 00 10 00 
                                ;db 0x38, 0x44, 0x04, 0x34, 0x54, 0x54, 0x38, 0x00, 0x80, 0x40, 0x20, 0x10, 0x08, 0x04, 0xf0, 0x0f, 0x78, 0x24, 0x24, 0x38, 0x24, 0x24, 0x78, 0x00, 0x38, 0x44, 0x40, 0x40, 0x40, 0x44, 0x38, 0x00, 0x78, 0x24, 0x24, 0x24, 0x24, 0x24, 0x78, 0x00, 0x7C, 0x40, 0x40, 0x78, 0x40, 0x40, 0x7C, 0x00, 0x7C, 0x40, 0x40, 0x78, 0x40, 0x40, 0x40, 0x00, 0x3C, 0x40, 0x40, 0x4C, 0x44, 0x44, 0x3C, 0x00, 0x44, 0x44, 0x44, 0x7C, 0x44, 0x44, 0x44, 0x00, 0x7C, 0x10, 0x10, 0x10, 0x10, 0x10, 0x7C, 0x00, 0x04, 0x04, 0x04, 0x04, 0x04, 0x44, 0x38, 0x00, 0x44, 0x48, 0x50, 0x60, 0x50, 0x48, 0x44, 0x00, 0x40, 0x40, 0x40, 0x40, 0x40, 0x40, 0x7C, 0x00, 0x44, 0x6C, 0x54, 0x54, 0x44, 0x44, 0x44, 0x00, 0x44, 0x64, 0x54, 0x4C, 0x44, 0x44, 0x44, 0x00, 0x38, 0x44, 0x44, 0x44, 0x44, 0x44, 0x38, 0x00, 0x78, 0x44, 0x44, 0x78, 0x40, 0x40, 0x40, 0x00, 0x38, 0x44, 0x44, 0x44, 0x54, 0x48, 0x34, 0x00, 0x78, 0x44, 0x44, 0x78, 0x50, 0x48, 0x44, 0x00, 0x38, 0x44, 0x40, 0x38, 0x04, 0x44, 0x38, 0x00, 0x7C, 0x10, 0x10, 0x10, 0x10, 0x10, 0x10, 0x00, 0x44, 0x44, 0x44, 0x44, 0x44, 0x44, 0x38, 0x00, 0x44, 0x44, 0x44, 0x28, 0x28, 0x10, 0x10, 0x00, 0x44, 0x44, 0x44, 0x54, 0x54, 0x6C, 0x44, 0x00, 0x44, 0x44, 0x28, 0x10, 0x28, 0x44, 0x44, 0x00, 0x44, 0x44, 0x28, 0x10, 0x10, 0x10, 0x10, 0x00, 0x7C, 0x04, 0x08, 0x10, 0x20, 0x40, 0x7C, 0x00, 0x10, 0x38, 0x54, 0x10, 0x10, 0x10, 0x10, 0x00, 0x10, 0x10, 0x10, 0x10, 0x54, 0x38, 0x10, 0x00, 0x00, 0x10, 0x20, 0x7C, 0x20, 0x10, 0x00, 0x00, 0x00, 0x10, 0x08, 0x7C, 0x08, 0x10, 0x00, 0x00, 0x00, 0x00, 0x00, 0x00, 0x00, 0x00, 0x7C, 0x00, 0x00, 0x00, 0x00, 0x00, 0x00, 0x00, 0x00, 0x00, 0x10, 0x10, 0x10, 0x10, 0x10, 0x00, 0x10, 0x00, 0x28, 0x28, 0x00, 0x00, 0x00, 0x00, 0x00, 0x00, 0x28, 0x28, 0x7C, 0x28, 0x7C, 0x28, 0x28, 0x00, 0x10, 0x3C, 0x50, 0x38, 0x14, 0x78, 0x10, 0x00, 0x60, 0x64, 0x08, 0x10, 0x20, 0x4C, 0x0C, 0x00, 0x20, 0x50, 0x50, 0x20, 0x54, 0x48, 0x34, 0x00, 0x0C, 0x0C, 0x08, 0x10, 0x00, 0x00, 0x00, 0x00, 0x08, 0x10, 0x20, 0x20, 0x20, 0x10, 0x08, 0x00, 0x20, 0x10, 0x08, 0x08, 0x08, 0x10, 0x20, 0x00, 0x10, 0x54, 0x38, 0x7C, 0x38, 0x54, 0x10, 0x00, 0x00, 0x10, 0x10, 0x7C, 0x10, 0x10, 0x00, 0x00, 0x00, 0x00, 0x00, 0x00, 0x00, 0x18, 0x18, 0x10, 0x00, 0x00, 0x00, 0x7C, 0x00, 0x00, 0x00, 0x00, 0x00, 0x00, 0x00, 0x00, 0x00, 0x18, 0x18, 0x00, 0x00, 0x04, 0x08, 0x10, 0x20, 0x40, 0x00, 0x00, 0x38, 0x44, 0x4C, 0x54, 0x64, 0x44, 0x38, 0x00, 0x10, 0x30, 0x10, 0x10, 0x10, 0x10, 0x38, 0x00, 0x38, 0x44, 0x04, 0x38, 0x40, 0x40, 0x7C, 0x00, 0x38, 0x04, 0x04, 0x18, 0x04, 0x04, 0x38, 0x00, 0x08, 0x18, 0x28, 0x48, 0x7C, 0x08, 0x08, 0x00, 0x7C, 0x40, 0x78, 0x04, 0x04, 0x44, 0x38, 0x00, 0x18, 0x20, 0x40, 0x78, 0x44, 0x44, 0x38, 0x00, 0x7C, 0x04, 0x08, 0x10, 0x20, 0x40, 0x40, 0x00, 0x38, 0x44, 0x44, 0x38, 0x44, 0x44, 0x38, 0x00, 0x38, 0x44, 0x44, 0x3C, 0x04, 0x08, 0x30, 0x00, 0x00, 0x30, 0x30, 0x00, 0x30, 0x30, 0x00, 0x00, 0x00, 0x30, 0x30, 0x00, 0x30, 0x30, 0x20, 0x40, 0x08, 0x10, 0x20, 0x40, 0x20, 0x10, 0x08, 0x00, 0x00, 0x00, 0x7C, 0x00, 0x7C, 0x00, 0x00, 0x00, 0x40, 0x20, 0x10, 0x08, 0x10, 0x20, 0x40, 0x00, 0x38, 0x44, 0x04, 0x08, 0x10, 0x00, 0x10, 0x00
                                scratchpad:
6334: 00 00 00 00 00 00         db 0,0,0,0,0,0
                                destination:
633A: 00 00                     db 0,0
                                fontpointer:
633C: 00 00                     db 0,0
                                
633E: 57 45 4C 43 4F 4D 45 20   S2: db "WELCOME TO",0
6346: 54 4F 00 
6349: 20 20 57 49 4E 54 45 52   S3: db "  WINTER  ",0
6351: 20 20 00 
6354: 20 43 41 4D 50 20 58 4C   S4: db " CAMP XLV ",0
635C: 56 20 00 
                                

635F:
